target datalayout = "e-m:e-p270:32:32-p271:32:32-p272:64:64-i64:64-i128:128-f80:128-n8:16:32:64-S128"
target triple = "x86_64-pc-linux-gnu"

%"class.std::__1::__fs::filesystem::path" = type { %"class.std::__1::basic_string" }
%"class.std::__1::basic_string" = type { %"union.std::__1::basic_string<char>::__rep" }
%"union.std::__1::basic_string<char>::__rep" = type { %"struct.std::__1::basic_string<char>::__long" }
%"struct.std::__1::basic_string<char>::__long" = type { %struct.anon.0, i64, ptr }
%struct.anon.0 = type { i64 }
%"class.std::__1::error_code" = type { i32, ptr }
%"struct.std::__1::__fs::filesystem::detail::ErrorHandler.2" = type { ptr, ptr, ptr, ptr }
%"class.std::__1::error_condition" = type { i32, ptr }
%"struct.std::__1::basic_string<char>::__short" = type { %struct.anon, [23 x i8] }
%struct.anon = type { i8 }

@.str.18 = private unnamed_addr constant [7 x i8] c"remove\00", align 1

; Function Attrs: mustprogress nounwind uwtable
define linkonce_odr hidden noundef ptr @_ZNSt3__114pointer_traitsIPKcE10pointer_toB8ne210000ERS1_(ptr noundef nonnull align 1 dereferenceable(1) %0) #2 comdat align 2 {
  %2 = alloca ptr, align 8
  store ptr %0, ptr %2, align 8, !tbaa !13
  %3 = load ptr, ptr %2, align 8, !tbaa !13
  ret ptr %3
}

; Function Attrs: mustprogress nounwind uwtable
define linkonce_odr hidden noundef ptr @_ZNKSt3__112basic_stringIcNS_11char_traitsIcEENS_9allocatorIcEEE19__get_short_pointerB8ne210000Ev(ptr noundef nonnull align 8 dereferenceable(24) %0) #2 comdat align 2 {
  %2 = alloca ptr, align 8
  store ptr %0, ptr %2, align 8, !tbaa !106
  %3 = load ptr, ptr %2, align 8
  %4 = getelementptr inbounds nuw %"class.std::__1::basic_string", ptr %3, i32 0, i32 0
  %5 = getelementptr inbounds nuw %"struct.std::__1::basic_string<char>::__short", ptr %4, i32 0, i32 1
  %6 = getelementptr inbounds [23 x i8], ptr %5, i64 0, i64 0
  %7 = call noundef ptr @_ZNSt3__114pointer_traitsIPKcE10pointer_toB8ne210000ERS1_(ptr noundef nonnull align 1 dereferenceable(1) %6) #20
  ret ptr %7
}

; Function Attrs: mustprogress nounwind uwtable
define linkonce_odr hidden noundef ptr @_ZNKSt3__112basic_stringIcNS_11char_traitsIcEENS_9allocatorIcEEE18__get_long_pointerB8ne210000Ev(ptr noundef nonnull align 8 dereferenceable(24) %0) #2 comdat align 2 {
  %2 = alloca ptr, align 8
  store ptr %0, ptr %2, align 8, !tbaa !106
  %3 = load ptr, ptr %2, align 8
  %4 = getelementptr inbounds nuw %"class.std::__1::basic_string", ptr %3, i32 0, i32 0
  %5 = getelementptr inbounds nuw %"struct.std::__1::basic_string<char>::__long", ptr %4, i32 0, i32 2
  %6 = load ptr, ptr %5, align 8, !tbaa !101
  ret ptr %6
}

; Function Attrs: mustprogress nounwind uwtable
define linkonce_odr hidden noundef zeroext i1 @_ZNKSt3__112basic_stringIcNS_11char_traitsIcEENS_9allocatorIcEEE9__is_longB8ne210000Ev(ptr noundef nonnull align 8 dereferenceable(24) %0) #2 comdat align 2 {
  %2 = alloca ptr, align 8
  store ptr %0, ptr %2, align 8, !tbaa !106
  %3 = load ptr, ptr %2, align 8
  %4 = getelementptr inbounds nuw %"class.std::__1::basic_string", ptr %3, i32 0, i32 0
  %5 = getelementptr inbounds nuw %"struct.std::__1::basic_string<char>::__short", ptr %4, i32 0, i32 0
  %6 = load i8, ptr %5, align 8
  %7 = and i8 %6, 1
  %8 = icmp ne i8 %7, 0
  ret i1 %8
}

; Function Attrs: mustprogress nounwind uwtable
define linkonce_odr hidden noundef ptr @_ZNSt3__112__to_addressB8ne210000IKcEEPT_S3_(ptr noundef %0) #2 comdat {
  %2 = alloca ptr, align 8
  store ptr %0, ptr %2, align 8, !tbaa !13
  %3 = load ptr, ptr %2, align 8, !tbaa !13
  ret ptr %3
}

; Function Attrs: mustprogress nounwind uwtable
define linkonce_odr hidden noundef ptr @_ZNKSt3__112basic_stringIcNS_11char_traitsIcEENS_9allocatorIcEEE13__get_pointerB8ne210000Ev(ptr noundef nonnull align 8 dereferenceable(24) %0) #2 comdat align 2 {
  %2 = alloca ptr, align 8
  store ptr %0, ptr %2, align 8, !tbaa !106
  %3 = load ptr, ptr %2, align 8
  %4 = call noundef zeroext i1 @_ZNKSt3__112basic_stringIcNS_11char_traitsIcEENS_9allocatorIcEEE9__is_longB8ne210000Ev(ptr noundef nonnull align 8 dereferenceable(24) %3) #20
  br i1 %4, label %5, label %7

5:                                                ; preds = %1
  %6 = call noundef ptr @_ZNKSt3__112basic_stringIcNS_11char_traitsIcEENS_9allocatorIcEEE18__get_long_pointerB8ne210000Ev(ptr noundef nonnull align 8 dereferenceable(24) %3) #20
  br label %9

7:                                                ; preds = %1
  %8 = call noundef ptr @_ZNKSt3__112basic_stringIcNS_11char_traitsIcEENS_9allocatorIcEEE19__get_short_pointerB8ne210000Ev(ptr noundef nonnull align 8 dereferenceable(24) %3) #20
  br label %9

9:                                                ; preds = %7, %5
  %10 = phi ptr [ %6, %5 ], [ %8, %7 ]
  ret ptr %10
}

; Function Attrs: mustprogress nounwind uwtable
define linkonce_odr hidden void @_ZNSt3__115error_conditionC2B8ne210000EiRKNS_14error_categoryE(ptr noundef nonnull align 8 dereferenceable(16) %0, i32 noundef %1, ptr noundef nonnull align 8 dereferenceable(8) %2) unnamed_addr #2 comdat align 2 {
  %4 = alloca ptr, align 8
  %5 = alloca i32, align 4
  %6 = alloca ptr, align 8
  store ptr %0, ptr %4, align 8, !tbaa !102
  store i32 %1, ptr %5, align 4, !tbaa !30
  store ptr %2, ptr %6, align 8, !tbaa !32
  %7 = load ptr, ptr %4, align 8
  %8 = getelementptr inbounds nuw %"class.std::__1::error_condition", ptr %7, i32 0, i32 0
  %9 = load i32, ptr %5, align 4, !tbaa !30
  store i32 %9, ptr %8, align 8, !tbaa !315
  %10 = getelementptr inbounds nuw %"class.std::__1::error_condition", ptr %7, i32 0, i32 1
  %11 = load ptr, ptr %6, align 8, !tbaa !32
  store ptr %11, ptr %10, align 8, !tbaa !313
  ret void
}

; Function Attrs: mustprogress nounwind uwtable
define linkonce_odr hidden void @_ZNSt3__110error_codeC2B8ne210000EiRKNS_14error_categoryE(ptr noundef nonnull align 8 dereferenceable(16) %0, i32 noundef %1, ptr noundef nonnull align 8 dereferenceable(8) %2) unnamed_addr #2 comdat align 2 {
  %4 = alloca ptr, align 8
  %5 = alloca i32, align 4
  %6 = alloca ptr, align 8
  store ptr %0, ptr %4, align 8, !tbaa !10
  store i32 %1, ptr %5, align 4, !tbaa !30
  store ptr %2, ptr %6, align 8, !tbaa !32
  %7 = load ptr, ptr %4, align 8
  %8 = getelementptr inbounds nuw %"class.std::__1::error_code", ptr %7, i32 0, i32 0
  %9 = load i32, ptr %5, align 4, !tbaa !30
  store i32 %9, ptr %8, align 8, !tbaa !60
  %10 = getelementptr inbounds nuw %"class.std::__1::error_code", ptr %7, i32 0, i32 1
  %11 = load ptr, ptr %6, align 8, !tbaa !32
  store ptr %11, ptr %10, align 8, !tbaa !62
  ret void
}

; Function Attrs: mustprogress nounwind uwtable
define linkonce_odr hidden noundef ptr @_ZNKSt3__112basic_stringIcNS_11char_traitsIcEENS_9allocatorIcEEE4dataB8ne210000Ev(ptr noundef nonnull align 8 dereferenceable(24) %0) #2 comdat align 2 {
  %2 = alloca ptr, align 8
  store ptr %0, ptr %2, align 8, !tbaa !106
  %3 = load ptr, ptr %2, align 8
  %4 = call noundef ptr @_ZNKSt3__112basic_stringIcNS_11char_traitsIcEENS_9allocatorIcEEE13__get_pointerB8ne210000Ev(ptr noundef nonnull align 8 dereferenceable(24) %3) #20
  %5 = call noundef ptr @_ZNSt3__112__to_addressB8ne210000IKcEEPT_S3_(ptr noundef %4) #20
  ret ptr %5
}

; Function Attrs: mustprogress nounwind uwtable
define linkonce_odr hidden noundef i32 @_ZNKSt3__115error_condition5valueB8ne210000Ev(ptr noundef nonnull align 8 dereferenceable(16) %0) #2 comdat align 2 {
  %2 = alloca ptr, align 8
  store ptr %0, ptr %2, align 8, !tbaa !102
  %3 = load ptr, ptr %2, align 8
  %4 = getelementptr inbounds nuw %"class.std::__1::error_condition", ptr %3, i32 0, i32 0
  %5 = load i32, ptr %4, align 8, !tbaa !315
  ret i32 %5
}

; Function Attrs: mustprogress nounwind uwtable
define linkonce_odr hidden noundef nonnull align 8 dereferenceable(8) ptr @_ZNKSt3__115error_condition8categoryB8ne210000Ev(ptr noundef nonnull align 8 dereferenceable(16) %0) #2 comdat align 2 {
  %2 = alloca ptr, align 8
  store ptr %0, ptr %2, align 8, !tbaa !102
  %3 = load ptr, ptr %2, align 8
  %4 = getelementptr inbounds nuw %"class.std::__1::error_condition", ptr %3, i32 0, i32 1
  %5 = load ptr, ptr %4, align 8, !tbaa !313
  ret ptr %5
}

; Function Attrs: mustprogress nounwind uwtable
define linkonce_odr hidden noundef i32 @_ZNKSt3__110error_code5valueB8ne210000Ev(ptr noundef nonnull align 8 dereferenceable(16) %0) #2 comdat align 2 {
  %2 = alloca ptr, align 8
  store ptr %0, ptr %2, align 8, !tbaa !10
  %3 = load ptr, ptr %2, align 8
  %4 = getelementptr inbounds nuw %"class.std::__1::error_code", ptr %3, i32 0, i32 0
  %5 = load i32, ptr %4, align 8, !tbaa !60
  ret i32 %5
}

; Function Attrs: mustprogress nounwind uwtable
define linkonce_odr hidden noundef nonnull align 8 dereferenceable(8) ptr @_ZNKSt3__110error_code8categoryB8ne210000Ev(ptr noundef nonnull align 8 dereferenceable(16) %0) #2 comdat align 2 {
  %2 = alloca ptr, align 8
  store ptr %0, ptr %2, align 8, !tbaa !10
  %3 = load ptr, ptr %2, align 8
  %4 = getelementptr inbounds nuw %"class.std::__1::error_code", ptr %3, i32 0, i32 1
  %5 = load ptr, ptr %4, align 8, !tbaa !62
  ret ptr %5
}

; Function Attrs: inlinehint mustprogress nounwind uwtable
define linkonce_odr hidden { i32, ptr } @_ZNSt3__120make_error_conditionB8ne210000ENS_4errcE(i32 noundef %0) #5 comdat {
  %2 = alloca %"class.std::__1::error_condition", align 8
  %3 = alloca i32, align 4
  store i32 %0, ptr %3, align 4, !tbaa !49
  %4 = load i32, ptr %3, align 4, !tbaa !49
  %5 = call noundef nonnull align 8 dereferenceable(8) ptr @_ZNSt3__116generic_categoryEv() #22
  call void @_ZNSt3__115error_conditionC2B8ne210000EiRKNS_14error_categoryE(ptr noundef nonnull align 8 dereferenceable(16) %2, i32 noundef %4, ptr noundef nonnull align 8 dereferenceable(8) %5) #20
  %6 = load { i32, ptr }, ptr %2, align 8
  ret { i32, ptr } %6
}

; Function Attrs: inlinehint mustprogress nounwind uwtable
define linkonce_odr hidden { i32, ptr } @_ZNSt3__14__fs10filesystem6detail13capture_errnoB8ne210000Ev() #5 comdat {
  %1 = alloca %"class.std::__1::error_code", align 8
  %2 = call ptr @__errno_location() #22
  %3 = load i32, ptr %2, align 4, !tbaa !30
  %4 = call noundef nonnull align 8 dereferenceable(8) ptr @_ZNSt3__116generic_categoryEv() #22
  call void @_ZNSt3__110error_codeC2B8ne210000EiRKNS_14error_categoryE(ptr noundef nonnull align 8 dereferenceable(16) %1, i32 noundef %3, ptr noundef nonnull align 8 dereferenceable(8) %4) #20
  %5 = load { i32, ptr }, ptr %1, align 8
  ret { i32, ptr } %5
}

; Function Attrs: mustprogress nounwind uwtable
define linkonce_odr hidden noundef ptr @_ZNKSt3__112basic_stringIcNS_11char_traitsIcEENS_9allocatorIcEEE5c_strB8ne210000Ev(ptr noundef nonnull align 8 dereferenceable(24) %0) #2 comdat align 2 {
  %2 = alloca ptr, align 8
  store ptr %0, ptr %2, align 8, !tbaa !106
  %3 = load ptr, ptr %2, align 8
  %4 = call noundef ptr @_ZNKSt3__112basic_stringIcNS_11char_traitsIcEENS_9allocatorIcEEE4dataB8ne210000Ev(ptr noundef nonnull align 8 dereferenceable(24) %3) #20
  ret ptr %4
}

; Function Attrs: mustprogress nounwind uwtable
define linkonce_odr hidden void @_ZNSt3__110error_code5clearB8ne210000Ev(ptr noundef nonnull align 8 dereferenceable(16) %0) #2 comdat align 2 {
  %2 = alloca ptr, align 8
  store ptr %0, ptr %2, align 8, !tbaa !10
  %3 = load ptr, ptr %2, align 8
  %4 = getelementptr inbounds nuw %"class.std::__1::error_code", ptr %3, i32 0, i32 0
  store i32 0, ptr %4, align 8, !tbaa !60
  %5 = call noundef nonnull align 8 dereferenceable(8) ptr @_ZNSt3__115system_categoryEv() #22
  %6 = getelementptr inbounds nuw %"class.std::__1::error_code", ptr %3, i32 0, i32 1
  store ptr %5, ptr %6, align 8, !tbaa !62
  ret void
}

; Function Attrs: inlinehint mustprogress nounwind uwtable
define linkonce_odr hidden noundef zeroext i1 @_ZNSt3__1eqB8ne210000ERKNS_10error_codeERKNS_15error_conditionE(ptr noundef nonnull align 8 dereferenceable(16) %0, ptr noundef nonnull align 8 dereferenceable(16) %1) #5 comdat {
  %3 = alloca ptr, align 8
  %4 = alloca ptr, align 8
  store ptr %0, ptr %3, align 8, !tbaa !10
  store ptr %1, ptr %4, align 8, !tbaa !102
  %5 = load ptr, ptr %3, align 8, !tbaa !10
  %6 = call noundef nonnull align 8 dereferenceable(8) ptr @_ZNKSt3__110error_code8categoryB8ne210000Ev(ptr noundef nonnull align 8 dereferenceable(16) %5) #20
  %7 = load ptr, ptr %3, align 8, !tbaa !10
  %8 = call noundef i32 @_ZNKSt3__110error_code5valueB8ne210000Ev(ptr noundef nonnull align 8 dereferenceable(16) %7) #20
  %9 = load ptr, ptr %4, align 8, !tbaa !102
  %10 = load ptr, ptr %6, align 8, !tbaa !104
  %11 = getelementptr inbounds ptr, ptr %10, i64 4
  %12 = load ptr, ptr %11, align 8
  %13 = call noundef zeroext i1 %12(ptr noundef nonnull align 8 dereferenceable(8) %6, i32 noundef %8, ptr noundef nonnull align 8 dereferenceable(16) %9) #20
  br i1 %13, label %24, label %14

14:                                               ; preds = %2
  %15 = load ptr, ptr %4, align 8, !tbaa !102
  %16 = call noundef nonnull align 8 dereferenceable(8) ptr @_ZNKSt3__115error_condition8categoryB8ne210000Ev(ptr noundef nonnull align 8 dereferenceable(16) %15) #20
  %17 = load ptr, ptr %3, align 8, !tbaa !10
  %18 = load ptr, ptr %4, align 8, !tbaa !102
  %19 = call noundef i32 @_ZNKSt3__115error_condition5valueB8ne210000Ev(ptr noundef nonnull align 8 dereferenceable(16) %18) #20
  %20 = load ptr, ptr %16, align 8, !tbaa !104
  %21 = getelementptr inbounds ptr, ptr %20, i64 5
  %22 = load ptr, ptr %21, align 8
  %23 = call noundef zeroext i1 %22(ptr noundef nonnull align 8 dereferenceable(8) %16, ptr noundef nonnull align 8 dereferenceable(16) %17, i32 noundef %19) #20
  br label %24

24:                                               ; preds = %14, %2
  %25 = phi i1 [ true, %2 ], [ %23, %14 ]
  ret i1 %25
}

; Function Attrs: mustprogress nounwind uwtable
define linkonce_odr hidden void @_ZNSt3__115error_conditionC2B8ne210000INS_4errcETnNS_9enable_ifIXsr23is_error_condition_enumIT_EE5valueEiE4typeELi0EEES4_(ptr noundef nonnull align 8 dereferenceable(16) %0, i32 noundef %1) unnamed_addr #2 comdat align 2 {
  %3 = alloca ptr, align 8
  %4 = alloca i32, align 4
  %5 = alloca %"class.std::__1::error_condition", align 8
  store ptr %0, ptr %3, align 8, !tbaa !102
  store i32 %1, ptr %4, align 4, !tbaa !49
  %6 = load ptr, ptr %3, align 8
  call void @llvm.lifetime.start.p0(i64 16, ptr %5) #20
  %7 = load i32, ptr %4, align 4, !tbaa !49
  %8 = call { i32, ptr } @_ZNSt3__120make_error_conditionB8ne210000ENS_4errcE(i32 noundef %7) #20
  %9 = getelementptr inbounds nuw { i32, ptr }, ptr %5, i32 0, i32 0
  %10 = extractvalue { i32, ptr } %8, 0
  store i32 %10, ptr %9, align 8
  %11 = getelementptr inbounds nuw { i32, ptr }, ptr %5, i32 0, i32 1
  %12 = extractvalue { i32, ptr } %8, 1
  store ptr %12, ptr %11, align 8
  call void @llvm.memcpy.p0.p0.i64(ptr align 8 %6, ptr align 8 %5, i64 16, i1 false), !tbaa.struct !29
  call void @llvm.lifetime.end.p0(i64 16, ptr %5) #20
  ret void
}

; Function Attrs: inlinehint mustprogress uwtable
define linkonce_odr hidden { i32, ptr } @_ZNSt3__14__fs10filesystem6detail14get_last_errorB8ne210000Ev() #4 comdat {
  %1 = alloca %"class.std::__1::error_code", align 8
  %2 = call { i32, ptr } @_ZNSt3__14__fs10filesystem6detail13capture_errnoB8ne210000Ev()
  %3 = getelementptr inbounds nuw { i32, ptr }, ptr %1, i32 0, i32 0
  %4 = extractvalue { i32, ptr } %2, 0
  store i32 %4, ptr %3, align 8
  %5 = getelementptr inbounds nuw { i32, ptr }, ptr %1, i32 0, i32 1
  %6 = extractvalue { i32, ptr } %2, 1
  store ptr %6, ptr %5, align 8
  %7 = load { i32, ptr }, ptr %1, align 8
  ret { i32, ptr } %7
}

; Function Attrs: mustprogress nounwind uwtable
define linkonce_odr hidden noundef ptr @_ZNKSt3__14__fs10filesystem4path5c_strB8ne210000Ev(ptr noundef nonnull align 8 dereferenceable(24) %0) #2 comdat align 2 {
  %2 = alloca ptr, align 8
  store ptr %0, ptr %2, align 8, !tbaa !5
  %3 = load ptr, ptr %2, align 8
  %4 = getelementptr inbounds nuw %"class.std::__1::__fs::filesystem::path", ptr %3, i32 0, i32 0
  %5 = call noundef ptr @_ZNKSt3__112basic_stringIcNS_11char_traitsIcEENS_9allocatorIcEEE5c_strB8ne210000Ev(ptr noundef nonnull align 8 dereferenceable(24) %4) #20
  ret ptr %5
}

; Function Attrs: mustprogress nounwind uwtable
define linkonce_odr hidden void @_ZNSt3__14__fs10filesystem6detail12ErrorHandlerIbEC2B8ne210000EPKcPNS_10error_codeEPKNS1_4pathESB_(ptr noundef nonnull align 8 dereferenceable(32) %0, ptr noundef %1, ptr noundef %2, ptr noundef %3, ptr noundef %4) unnamed_addr #2 comdat align 2 {
  %6 = alloca ptr, align 8
  %7 = alloca ptr, align 8
  %8 = alloca ptr, align 8
  %9 = alloca ptr, align 8
  %10 = alloca ptr, align 8
  store ptr %0, ptr %6, align 8, !tbaa !74
  store ptr %1, ptr %7, align 8, !tbaa !13
  store ptr %2, ptr %8, align 8, !tbaa !10
  store ptr %3, ptr %9, align 8, !tbaa !5
  store ptr %4, ptr %10, align 8, !tbaa !5
  %11 = load ptr, ptr %6, align 8
  %12 = getelementptr inbounds nuw %"struct.std::__1::__fs::filesystem::detail::ErrorHandler.2", ptr %11, i32 0, i32 0
  %13 = load ptr, ptr %7, align 8, !tbaa !13
  store ptr %13, ptr %12, align 8, !tbaa !81
  %14 = getelementptr inbounds nuw %"struct.std::__1::__fs::filesystem::detail::ErrorHandler.2", ptr %11, i32 0, i32 1
  %15 = load ptr, ptr %8, align 8, !tbaa !10
  store ptr %15, ptr %14, align 8, !tbaa !83
  %16 = getelementptr inbounds nuw %"struct.std::__1::__fs::filesystem::detail::ErrorHandler.2", ptr %11, i32 0, i32 2
  %17 = load ptr, ptr %9, align 8, !tbaa !5
  store ptr %17, ptr %16, align 8, !tbaa !84
  %18 = getelementptr inbounds nuw %"struct.std::__1::__fs::filesystem::detail::ErrorHandler.2", ptr %11, i32 0, i32 3
  %19 = load ptr, ptr %10, align 8, !tbaa !5
  store ptr %19, ptr %18, align 8, !tbaa !85
  %20 = getelementptr inbounds nuw %"struct.std::__1::__fs::filesystem::detail::ErrorHandler.2", ptr %11, i32 0, i32 1
  %21 = load ptr, ptr %20, align 8, !tbaa !83
  %22 = icmp ne ptr %21, null
  br i1 %22, label %23, label %26

23:                                               ; preds = %5
  %24 = getelementptr inbounds nuw %"struct.std::__1::__fs::filesystem::detail::ErrorHandler.2", ptr %11, i32 0, i32 1
  %25 = load ptr, ptr %24, align 8, !tbaa !83
  call void @_ZNSt3__110error_code5clearB8ne210000Ev(ptr noundef nonnull align 8 dereferenceable(16) %25) #20
  br label %26

26:                                               ; preds = %23, %5
  ret void
}

; Function Attrs: mustprogress uwtable
define dso_local noundef zeroext i1 @_ZNSt3__14__fs10filesystem8__removeERKNS1_4pathEPNS_10error_codeE(ptr noundef nonnull align 8 dereferenceable(24) %0, ptr noundef %1) #0 {
  %3 = alloca i1, align 1
  %4 = alloca ptr, align 8
  %5 = alloca ptr, align 8
  %6 = alloca %"struct.std::__1::__fs::filesystem::detail::ErrorHandler.2", align 8
  %7 = alloca %"class.std::__1::error_code", align 8
  %8 = alloca %"class.std::__1::error_condition", align 8
  %9 = alloca i32, align 4
  store ptr %0, ptr %4, align 8, !tbaa !5
  store ptr %1, ptr %5, align 8, !tbaa !10
  call void @llvm.lifetime.start.p0(i64 32, ptr %6) #20
  %10 = load ptr, ptr %5, align 8, !tbaa !10
  %11 = load ptr, ptr %4, align 8, !tbaa !5
  call void @_ZNSt3__14__fs10filesystem6detail12ErrorHandlerIbEC2B8ne210000EPKcPNS_10error_codeEPKNS1_4pathESB_(ptr noundef nonnull align 8 dereferenceable(32) %6, ptr noundef @.str.18, ptr noundef %10, ptr noundef %11, ptr noundef null)
  %12 = load ptr, ptr %4, align 8, !tbaa !5
  %13 = call noundef ptr @_ZNKSt3__14__fs10filesystem4path5c_strB8ne210000Ev(ptr noundef nonnull align 8 dereferenceable(24) %12) #20
  %14 = call i32 @remove(ptr noundef %13) #20
  %15 = icmp eq i32 %14, -1
  br i1 %15, label %16, label %27

16:                                               ; preds = %2
  call void @llvm.lifetime.start.p0(i64 16, ptr %7) #20
  %17 = call { i32, ptr } @_ZNSt3__14__fs10filesystem6detail14get_last_errorB8ne210000Ev()
  %18 = getelementptr inbounds nuw { i32, ptr }, ptr %7, i32 0, i32 0
  %19 = extractvalue { i32, ptr } %17, 0
  store i32 %19, ptr %18, align 8
  %20 = getelementptr inbounds nuw { i32, ptr }, ptr %7, i32 0, i32 1
  %21 = extractvalue { i32, ptr } %17, 1
  store ptr %21, ptr %20, align 8
  call void @llvm.lifetime.start.p0(i64 16, ptr %8) #20
  call void @_ZNSt3__115error_conditionC2B8ne210000INS_4errcETnNS_9enable_ifIXsr23is_error_condition_enumIT_EE5valueEiE4typeELi0EEES4_(ptr noundef nonnull align 8 dereferenceable(16) %8, i32 noundef 2) #20
  %22 = call noundef zeroext i1 @_ZNSt3__1eqB8ne210000ERKNS_10error_codeERKNS_15error_conditionE(ptr noundef nonnull align 8 dereferenceable(16) %7, ptr noundef nonnull align 8 dereferenceable(16) %8) #20
  %23 = xor i1 %22, true
  call void @llvm.lifetime.end.p0(i64 16, ptr %8) #20
  br i1 %23, label %24, label %26

24:                                               ; preds = %16
  %25 = call noundef zeroext i1 @_ZNKSt3__14__fs10filesystem6detail12ErrorHandlerIbE6reportB8ne210000ERKNS_10error_codeE(ptr noundef nonnull align 8 dereferenceable(32) %6, ptr noundef nonnull align 8 dereferenceable(16) %7)
  br label %26

26:                                               ; preds = %24, %16
  store i1 false, ptr %3, align 1
  store i32 1, ptr %9, align 4
  call void @llvm.lifetime.end.p0(i64 16, ptr %7) #20
  br label %28

27:                                               ; preds = %2
  store i1 true, ptr %3, align 1
  store i32 1, ptr %9, align 4
  br label %28

28:                                               ; preds = %27, %26
  call void @llvm.lifetime.end.p0(i64 32, ptr %6) #20
  %29 = load i1, ptr %3, align 1
  ret i1 %29
}