; Function Attrs: mustprogress uwtable
define dso_local noundef zeroext i1 @_ZNSt3__14__fs10filesystem8__removeERKNS1_4pathEPNS_10error_codeE(ptr noundef nonnull align 8 dereferenceable(24) %0, ptr noundef %1) local_unnamed_addr #0 {
  %3 = alloca %"struct.std::__1::__fs::filesystem::detail::ErrorHandler.2", align 8
  %4 = alloca %"class.std::__1::error_code", align 8
  %5 = alloca %"class.std::__1::error_condition", align 8
  call void @llvm.lifetime.start.p0(i64 32, ptr nonnull %3) #28
  store ptr @.str.18, ptr %3, align 8, !tbaa !61
  %6 = getelementptr inbounds nuw i8, ptr %3, i64 8
  store ptr %1, ptr %6, align 8, !tbaa !63
  %7 = getelementptr inbounds nuw i8, ptr %3, i64 16
  store ptr %0, ptr %7, align 8, !tbaa !64
  %8 = getelementptr inbounds nuw i8, ptr %3, i64 24
  store ptr null, ptr %8, align 8, !tbaa !65
  %.not.i = icmp eq ptr %1, null
  br i1 %.not.i, label %_ZNSt3__14__fs10filesystem6detail12ErrorHandlerIbEC2B8ne210000EPKcPNS_10error_codeEPKNS1_4pathESB_.exit, label %9

9:                                                ; preds = %2
  store i32 0, ptr %1, align 8, !tbaa !8
  %10 = tail call noundef nonnull align 8 dereferenceable(8) ptr @_ZNSt3__115system_categoryEv() #30
  %11 = getelementptr inbounds nuw i8, ptr %1, i64 8
  store ptr %10, ptr %11, align 8, !tbaa !13
  br label %_ZNSt3__14__fs10filesystem6detail12ErrorHandlerIbEC2B8ne210000EPKcPNS_10error_codeEPKNS1_4pathESB_.exit

_ZNSt3__14__fs10filesystem6detail12ErrorHandlerIbEC2B8ne210000EPKcPNS_10error_codeEPKNS1_4pathESB_.exit: ; preds = %2, %9
  %12 = load i8, ptr %0, align 8
  %13 = and i8 %12, 1
  %.not.i.i.i.i = icmp eq i8 %13, 0
  %14 = getelementptr inbounds nuw i8, ptr %0, i64 16
  %15 = load ptr, ptr %14, align 8
  %16 = getelementptr inbounds nuw i8, ptr %0, i64 1
  %17 = select i1 %.not.i.i.i.i, ptr %16, ptr %15
  %18 = tail call i32 @remove(ptr noundef %17) #28
  %19 = icmp ne i32 %18, -1
  br i1 %19, label %38, label %20

20:                                               ; preds = %_ZNSt3__14__fs10filesystem6detail12ErrorHandlerIbEC2B8ne210000EPKcPNS_10error_codeEPKNS1_4pathESB_.exit
  call void @llvm.lifetime.start.p0(i64 16, ptr nonnull %4) #28
  %21 = tail call ptr @__errno_location() #30
  %22 = load i32, ptr %21, align 4, !tbaa !26
  %23 = tail call noundef nonnull align 8 dereferenceable(8) ptr @_ZNSt3__116generic_categoryEv() #30
  store i32 %22, ptr %4, align 8
  %24 = getelementptr inbounds nuw i8, ptr %4, i64 8
  store ptr %23, ptr %24, align 8
  call void @llvm.lifetime.start.p0(i64 16, ptr nonnull %5) #28
  store i32 2, ptr %5, align 8, !tbaa !26
  %.sroa.41.0..sroa_idx.i = getelementptr inbounds nuw i8, ptr %5, i64 8
  store ptr %23, ptr %.sroa.41.0..sroa_idx.i, align 8, !tbaa !28
  %25 = load ptr, ptr %23, align 8, !tbaa !82
  %26 = getelementptr inbounds nuw i8, ptr %25, i64 32
  %27 = load ptr, ptr %26, align 8
  %28 = call noundef zeroext i1 %27(ptr noundef nonnull align 8 dereferenceable(8) %23, i32 noundef %22, ptr noundef nonnull align 8 dereferenceable(16) %5) #28
  br i1 %28, label %_ZNSt3__1eqB8ne210000ERKNS_10error_codeERKNS_15error_conditionE.exit.thread, label %_ZNSt3__1eqB8ne210000ERKNS_10error_codeERKNS_15error_conditionE.exit

_ZNSt3__1eqB8ne210000ERKNS_10error_codeERKNS_15error_conditionE.exit.thread: ; preds = %20
  call void @llvm.lifetime.end.p0(i64 16, ptr nonnull %5) #28
  br label %37

_ZNSt3__1eqB8ne210000ERKNS_10error_codeERKNS_15error_conditionE.exit: ; preds = %20
  %29 = load ptr, ptr %.sroa.41.0..sroa_idx.i, align 8, !tbaa !84
  %30 = load i32, ptr %5, align 8, !tbaa !86
  %31 = load ptr, ptr %29, align 8, !tbaa !82
  %32 = getelementptr inbounds nuw i8, ptr %31, i64 40
  %33 = load ptr, ptr %32, align 8
  %34 = call noundef zeroext i1 %33(ptr noundef nonnull align 8 dereferenceable(8) %29, ptr noundef nonnull align 8 dereferenceable(16) %4, i32 noundef %30) #28
  call void @llvm.lifetime.end.p0(i64 16, ptr nonnull %5) #28
  br i1 %34, label %37, label %35

35:                                               ; preds = %_ZNSt3__1eqB8ne210000ERKNS_10error_codeERKNS_15error_conditionE.exit
  %36 = call noundef zeroext i1 @_ZNKSt3__14__fs10filesystem6detail12ErrorHandlerIbE6reportB8ne210000ERKNS_10error_codeE(ptr noundef nonnull align 8 dereferenceable(32) %3, ptr noundef nonnull align 8 dereferenceable(16) %4)
  br label %37

37:                                               ; preds = %_ZNSt3__1eqB8ne210000ERKNS_10error_codeERKNS_15error_conditionE.exit.thread, %35, %_ZNSt3__1eqB8ne210000ERKNS_10error_codeERKNS_15error_conditionE.exit
  call void @llvm.lifetime.end.p0(i64 16, ptr nonnull %4) #28
  br label %38

38:                                               ; preds = %_ZNSt3__14__fs10filesystem6detail12ErrorHandlerIbEC2B8ne210000EPKcPNS_10error_codeEPKNS1_4pathESB_.exit, %37
  call void @llvm.lifetime.end.p0(i64 32, ptr nonnull %3) #28
  ret i1 %19
}